target datalayout = "e-m:e-p270:32:32-p271:32:32-p272:64:64-i64:64-i128:128-f80:128-n8:16:32:64-S128"
target triple = "x86_64-pc-linux-gnu"

%struct.XErrorEvent = type { i32, ptr, i64, i64, i8, i8, i8 }

@errorHandlerOperation = internal global ptr null, align 8
@errorBase = internal global i32 0, align 4
@errorCode = internal global i32 0, align 4
@X11_XGetErrorText = external global ptr, align 8
@.str.49 = private unnamed_addr constant [6 x i8] c"UTF-8\00", align 1
@.str.50 = private unnamed_addr constant [1 x i8] zeroinitializer, align 1
@.str.51 = private unnamed_addr constant [17 x i8] c"Could not %s: %s\00", align 1
@.str.52 = private unnamed_addr constant [27 x i8] c"Could not %s: %i (Base %i)\00", align 1

; Function Attrs: nounwind uwtable
define internal i32 @X11_GL_ErrorHandler(ptr noundef %0, ptr noundef %1) #0 {
  %3 = alloca ptr, align 8
  %4 = alloca ptr, align 8
  %5 = alloca ptr, align 8
  %6 = alloca [256 x i8], align 16
  store ptr %0, ptr %3, align 8
  store ptr %1, ptr %4, align 8
  call void @llvm.lifetime.start.p0(i64 8, ptr %5) #5
  store ptr null, ptr %5, align 8
  call void @llvm.lifetime.start.p0(i64 256, ptr %6) #5
  %7 = load ptr, ptr %4, align 8
  %8 = getelementptr inbounds nuw %struct.XErrorEvent, ptr %7, i32 0, i32 4
  %9 = load i8, ptr %8, align 8
  %10 = zext i8 %9 to i32
  store i32 %10, ptr @errorCode, align 4
  %11 = load ptr, ptr @X11_XGetErrorText, align 8
  %12 = load ptr, ptr %3, align 8
  %13 = load i32, ptr @errorCode, align 4
  %14 = getelementptr inbounds [256 x i8], ptr %6, i64 0, i64 0
  %15 = call i32 %11(ptr noundef %12, i32 noundef %13, ptr noundef %14, i32 noundef 256)
  %16 = icmp eq i32 %15, 0
  br i1 %16, label %17, label %23

17:                                               ; preds = %2
  %18 = getelementptr inbounds [256 x i8], ptr %6, i64 0, i64 0
  %19 = getelementptr inbounds [256 x i8], ptr %6, i64 0, i64 0
  %20 = call i64 @SDL_strlen_REAL(ptr noundef %19)
  %21 = add i64 %20, 1
  %22 = call ptr @SDL_iconv_string_REAL(ptr noundef @.str.49, ptr noundef @.str.50, ptr noundef %18, i64 noundef %21)
  store ptr %22, ptr %5, align 8
  br label %23

23:                                               ; preds = %17, %2
  %24 = load ptr, ptr %5, align 8
  %25 = icmp ne ptr %24, null
  br i1 %25, label %26, label %31

26:                                               ; preds = %23
  %27 = load ptr, ptr @errorHandlerOperation, align 8
  %28 = load ptr, ptr %5, align 8
  %29 = call zeroext i1 (ptr, ...) @SDL_SetError_REAL(ptr noundef @.str.51, ptr noundef %27, ptr noundef %28)
  %30 = load ptr, ptr %5, align 8
  call void @SDL_free_REAL(ptr noundef %30)
  br label %36

31:                                               ; preds = %23
  %32 = load ptr, ptr @errorHandlerOperation, align 8
  %33 = load i32, ptr @errorCode, align 4
  %34 = load i32, ptr @errorBase, align 4
  %35 = call zeroext i1 (ptr, ...) @SDL_SetError_REAL(ptr noundef @.str.52, ptr noundef %32, i32 noundef %33, i32 noundef %34)
  br label %36

36:                                               ; preds = %31, %26
  call void @llvm.lifetime.end.p0(i64 256, ptr %6) #5
  call void @llvm.lifetime.end.p0(i64 8, ptr %5) #5
  ret i32 0
}