; Function Attrs: nounwind uwtable
define internal noundef i32 @X11_GL_ErrorHandler(ptr noundef %0, ptr noundef readonly captures(none) %1) #0 {
  %3 = alloca [256 x i8], align 16
  call void @llvm.lifetime.start.p0(i64 256, ptr nonnull %3) #6
  %4 = getelementptr inbounds nuw i8, ptr %1, i64 32
  %5 = load i8, ptr %4, align 8
  %6 = zext i8 %5 to i32
  store i32 %6, ptr @errorCode, align 4
  %7 = load ptr, ptr @X11_XGetErrorText, align 8
  %8 = call i32 %7(ptr noundef %0, i32 noundef %6, ptr noundef nonnull %3, i32 noundef 256) #6
  %9 = icmp eq i32 %8, 0
  br i1 %9, label %10, label %.thread

10:                                               ; preds = %2
  %11 = call i64 @SDL_strlen_REAL(ptr noundef nonnull %3) #6
  %12 = add i64 %11, 1
  %13 = call ptr @SDL_iconv_string_REAL(ptr noundef nonnull @.str.49, ptr noundef nonnull @.str.50, ptr noundef nonnull %3, i64 noundef %12) #6
  %.not = icmp eq ptr %13, null
  br i1 %.not, label %.thread, label %14

14:                                               ; preds = %10
  %15 = load ptr, ptr @errorHandlerOperation, align 8
  %16 = call zeroext i1 (ptr, ...) @SDL_SetError_REAL(ptr noundef nonnull @.str.51, ptr noundef %15, ptr noundef nonnull %13) #6
  call void @SDL_free_REAL(ptr noundef nonnull %13) #6
  br label %21

.thread:                                          ; preds = %2, %10
  %17 = load ptr, ptr @errorHandlerOperation, align 8
  %18 = load i32, ptr @errorCode, align 4
  %19 = load i32, ptr @errorBase, align 4
  %20 = call zeroext i1 (ptr, ...) @SDL_SetError_REAL(ptr noundef nonnull @.str.52, ptr noundef %17, i32 noundef %18, i32 noundef %19) #6
  br label %21

21:                                               ; preds = %.thread, %14
  call void @llvm.lifetime.end.p0(i64 256, ptr nonnull %3) #6
  ret i32 0
}